target datalayout = "e-m:e-p270:32:32-p271:32:32-p272:64:64-i64:64-i128:128-f80:128-n8:16:32:64-S128"
target triple = "x86_64-pc-linux-gnu"

@.str = private unnamed_addr constant [52 x i8] c"cli_hex2ui(): Malformed hexstring: %s (length: %u)\0A\00", align 1

; Function Attrs: nounwind uwtable
define internal i32 @cli_hex2int(i8 noundef signext %0) #0 {
  %2 = alloca i8, align 1
  store i8 %0, ptr %2, align 1
  %3 = load i8, ptr %2, align 1
  %4 = zext i8 %3 to i64
  %5 = getelementptr inbounds [256 x i32], ptr @hex_chars, i64 0, i64 %4
  %6 = load i32, ptr %5, align 4
  ret i32 %6
}

; Function Attrs: nounwind uwtable
define i32 @cli_realhex2ui(ptr noundef %0, ptr noundef %1, i32 noundef %2) #0 {
  %4 = alloca i32, align 4
  %5 = alloca ptr, align 8
  %6 = alloca ptr, align 8
  %7 = alloca i32, align 4
  %8 = alloca i16, align 2
  %9 = alloca i32, align 4
  %10 = alloca i32, align 4
  store ptr %0, ptr %5, align 8
  store ptr %1, ptr %6, align 8
  store i32 %2, ptr %7, align 4
  store i32 0, ptr %9, align 4
  br label %11

11:                                               ; preds = %140, %3
  %12 = load i32, ptr %9, align 4
  %13 = load i32, ptr %7, align 4
  %14 = icmp ult i32 %12, %13
  br i1 %14, label %15, label %143

15:                                               ; preds = %11
  store i16 0, ptr %8, align 2
  %16 = load ptr, ptr %5, align 8
  %17 = load i32, ptr %9, align 4
  %18 = zext i32 %17 to i64
  %19 = getelementptr inbounds i8, ptr %16, i64 %18
  %20 = load i8, ptr %19, align 1
  %21 = sext i8 %20 to i32
  %22 = icmp eq i32 %21, 63
  br i1 %22, label %23, label %37

23:                                               ; preds = %15
  %24 = load ptr, ptr %5, align 8
  %25 = load i32, ptr %9, align 4
  %26 = add i32 %25, 1
  %27 = zext i32 %26 to i64
  %28 = getelementptr inbounds i8, ptr %24, i64 %27
  %29 = load i8, ptr %28, align 1
  %30 = sext i8 %29 to i32
  %31 = icmp eq i32 %30, 63
  br i1 %31, label %32, label %37

32:                                               ; preds = %23
  %33 = load i16, ptr %8, align 2
  %34 = zext i16 %33 to i32
  %35 = or i32 %34, 256
  %36 = trunc i32 %35 to i16
  store i16 %36, ptr %8, align 2
  br label %136

37:                                               ; preds = %23, %15
  %38 = load ptr, ptr %5, align 8
  %39 = load i32, ptr %9, align 4
  %40 = add i32 %39, 1
  %41 = zext i32 %40 to i64
  %42 = getelementptr inbounds i8, ptr %38, i64 %41
  %43 = load i8, ptr %42, align 1
  %44 = sext i8 %43 to i32
  %45 = icmp eq i32 %44, 63
  br i1 %45, label %46, label %64

46:                                               ; preds = %37
  %47 = load ptr, ptr %5, align 8
  %48 = load i32, ptr %9, align 4
  %49 = zext i32 %48 to i64
  %50 = getelementptr inbounds i8, ptr %47, i64 %49
  %51 = load i8, ptr %50, align 1
  %52 = call i32 @cli_hex2int(i8 noundef signext %51)
  store i32 %52, ptr %10, align 4
  %53 = icmp sge i32 %52, 0
  br i1 %53, label %54, label %58

54:                                               ; preds = %46
  %55 = load i32, ptr %10, align 4
  %56 = shl i32 %55, 4
  %57 = trunc i32 %56 to i16
  store i16 %57, ptr %8, align 2
  br label %59

58:                                               ; preds = %46
  store i32 0, ptr %4, align 4
  br label %144

59:                                               ; preds = %54
  %60 = load i16, ptr %8, align 2
  %61 = zext i16 %60 to i32
  %62 = or i32 %61, 768
  %63 = trunc i32 %62 to i16
  store i16 %63, ptr %8, align 2
  br label %135

64:                                               ; preds = %37
  %65 = load ptr, ptr %5, align 8
  %66 = load i32, ptr %9, align 4
  %67 = zext i32 %66 to i64
  %68 = getelementptr inbounds i8, ptr %65, i64 %67
  %69 = load i8, ptr %68, align 1
  %70 = sext i8 %69 to i32
  %71 = icmp eq i32 %70, 63
  br i1 %71, label %72, label %90

72:                                               ; preds = %64
  %73 = load ptr, ptr %5, align 8
  %74 = load i32, ptr %9, align 4
  %75 = add i32 %74, 1
  %76 = zext i32 %75 to i64
  %77 = getelementptr inbounds i8, ptr %73, i64 %76
  %78 = load i8, ptr %77, align 1
  %79 = call i32 @cli_hex2int(i8 noundef signext %78)
  store i32 %79, ptr %10, align 4
  %80 = icmp sge i32 %79, 0
  br i1 %80, label %81, label %84

81:                                               ; preds = %72
  %82 = load i32, ptr %10, align 4
  %83 = trunc i32 %82 to i16
  store i16 %83, ptr %8, align 2
  br label %85

84:                                               ; preds = %72
  store i32 0, ptr %4, align 4
  br label %144

85:                                               ; preds = %81
  %86 = load i16, ptr %8, align 2
  %87 = zext i16 %86 to i32
  %88 = or i32 %87, 1024
  %89 = trunc i32 %88 to i16
  store i16 %89, ptr %8, align 2
  br label %134

90:                                               ; preds = %64
  %91 = load ptr, ptr %5, align 8
  %92 = load i32, ptr %9, align 4
  %93 = zext i32 %92 to i64
  %94 = getelementptr inbounds i8, ptr %91, i64 %93
  %95 = load i8, ptr %94, align 1
  %96 = sext i8 %95 to i32
  %97 = icmp eq i32 %96, 40
  br i1 %97, label %98, label %103

98:                                               ; preds = %90
  %99 = load i16, ptr %8, align 2
  %100 = zext i16 %99 to i32
  %101 = or i32 %100, 512
  %102 = trunc i32 %101 to i16
  store i16 %102, ptr %8, align 2
  br label %133

103:                                              ; preds = %90
  %104 = load ptr, ptr %5, align 8
  %105 = load i32, ptr %9, align 4
  %106 = zext i32 %105 to i64
  %107 = getelementptr inbounds i8, ptr %104, i64 %106
  %108 = load i8, ptr %107, align 1
  %109 = call i32 @cli_hex2int(i8 noundef signext %108)
  store i32 %109, ptr %10, align 4
  %110 = icmp sge i32 %109, 0
  br i1 %110, label %111, label %131

111:                                              ; preds = %103
  %112 = load i32, ptr %10, align 4
  %113 = trunc i32 %112 to i16
  store i16 %113, ptr %8, align 2
  %114 = load ptr, ptr %5, align 8
  %115 = load i32, ptr %9, align 4
  %116 = add i32 %115, 1
  %117 = zext i32 %116 to i64
  %118 = getelementptr inbounds i8, ptr %114, i64 %117
  %119 = load i8, ptr %118, align 1
  %120 = call i32 @cli_hex2int(i8 noundef signext %119)
  store i32 %120, ptr %10, align 4
  %121 = icmp sge i32 %120, 0
  br i1 %121, label %122, label %129

122:                                              ; preds = %111
  %123 = load i16, ptr %8, align 2
  %124 = zext i16 %123 to i32
  %125 = shl i32 %124, 4
  %126 = load i32, ptr %10, align 4
  %127 = add nsw i32 %125, %126
  %128 = trunc i32 %127 to i16
  store i16 %128, ptr %8, align 2
  br label %130

129:                                              ; preds = %111
  store i32 0, ptr %4, align 4
  br label %144

130:                                              ; preds = %122
  br label %132

131:                                              ; preds = %103
  store i32 0, ptr %4, align 4
  br label %144

132:                                              ; preds = %130
  br label %133

133:                                              ; preds = %132, %98
  br label %134

134:                                              ; preds = %133, %85
  br label %135

135:                                              ; preds = %134, %59
  br label %136

136:                                              ; preds = %135, %32
  %137 = load i16, ptr %8, align 2
  %138 = load ptr, ptr %6, align 8
  %139 = getelementptr inbounds i16, ptr %138, i32 1
  store ptr %139, ptr %6, align 8
  store i16 %137, ptr %138, align 2
  br label %140

140:                                              ; preds = %136
  %141 = load i32, ptr %9, align 4
  %142 = add i32 %141, 2
  store i32 %142, ptr %9, align 4
  br label %11

143:                                              ; preds = %11
  store i32 1, ptr %4, align 4
  br label %144

144:                                              ; preds = %143, %131, %129, %84, %58
  %145 = load i32, ptr %4, align 4
  ret i32 %145
}

; Function Attrs: nounwind uwtable
define ptr @cli_hex2ui(ptr noundef %0) #0 {
  %2 = alloca ptr, align 8
  %3 = alloca ptr, align 8
  %4 = alloca ptr, align 8
  %5 = alloca i32, align 4
  store ptr %0, ptr %3, align 8
  %6 = load ptr, ptr %3, align 8
  %7 = call i64 @strlen(ptr noundef %6) #7
  %8 = trunc i64 %7 to i32
  store i32 %8, ptr %5, align 4
  %9 = load i32, ptr %5, align 4
  %10 = urem i32 %9, 2
  %11 = icmp ne i32 %10, 0
  br i1 %11, label %12, label %15

12:                                               ; preds = %1
  %13 = load ptr, ptr %3, align 8
  %14 = load i32, ptr %5, align 4
  call void (ptr, ...) @cli_errmsg(ptr noundef @.str, ptr noundef %13, i32 noundef %14)
  store ptr null, ptr %2, align 8
  br label %34

15:                                               ; preds = %1
  %16 = load i32, ptr %5, align 4
  %17 = udiv i32 %16, 2
  %18 = add i32 %17, 1
  %19 = zext i32 %18 to i64
  %20 = call ptr @cli_max_calloc(i64 noundef %19, i64 noundef 2)
  store ptr %20, ptr %4, align 8
  %21 = load ptr, ptr %4, align 8
  %22 = icmp ne ptr %21, null
  br i1 %22, label %24, label %23

23:                                               ; preds = %15
  store ptr null, ptr %2, align 8
  br label %34

24:                                               ; preds = %15
  %25 = load ptr, ptr %3, align 8
  %26 = load ptr, ptr %4, align 8
  %27 = load i32, ptr %5, align 4
  %28 = call i32 @cli_realhex2ui(ptr noundef %25, ptr noundef %26, i32 noundef %27)
  %29 = icmp ne i32 %28, 0
  br i1 %29, label %30, label %32

30:                                               ; preds = %24
  %31 = load ptr, ptr %4, align 8
  store ptr %31, ptr %2, align 8
  br label %34

32:                                               ; preds = %24
  %33 = load ptr, ptr %4, align 8
  call void @free(ptr noundef %33) #8
  store ptr null, ptr %2, align 8
  br label %34

34:                                               ; preds = %32, %30, %23, %12
  %35 = load ptr, ptr %2, align 8
  ret ptr %35
}