; Function Attrs: nounwind uwtable
define ptr @cli_hex2ui(ptr noundef %0) local_unnamed_addr #1 {
  %2 = tail call i64 @strlen(ptr noundef nonnull dereferenceable(1) %0) #26
  %3 = trunc i64 %2 to i32
  %4 = and i32 %3, 1
  %.not = icmp eq i32 %4, 0
  br i1 %.not, label %6, label %5

5:                                                ; preds = %1
  tail call void (ptr, ...) @cli_errmsg(ptr noundef nonnull @.str, ptr noundef %0, i32 noundef %3) #27
  br label %cli_realhex2ui.exit

6:                                                ; preds = %1
  %7 = lshr exact i32 %3, 1
  %8 = add nuw i32 %7, 1
  %9 = zext i32 %8 to i64
  %10 = tail call ptr @cli_max_calloc(i64 noundef %9, i64 noundef 2) #27
  %.not12 = icmp eq ptr %10, null
  br i1 %.not12, label %cli_realhex2ui.exit, label %11

11:                                               ; preds = %6
  %.not.i = icmp eq i32 %3, 0
  br i1 %.not.i, label %cli_realhex2ui.exit, label %.lr.ph.i

.lr.ph.i:                                         ; preds = %11, %52
  %.041.i = phi i32 [ %54, %52 ], [ 0, %11 ]
  %.03440.i = phi ptr [ %53, %52 ], [ %10, %11 ]
  %12 = zext i32 %.041.i to i64
  %13 = getelementptr inbounds i8, ptr %0, i64 %12
  %14 = load i8, ptr %13, align 1
  %15 = icmp eq i8 %14, 63
  %16 = or disjoint i32 %.041.i, 1
  %17 = zext i32 %16 to i64
  %18 = getelementptr inbounds i8, ptr %0, i64 %17
  %19 = load i8, ptr %18, align 1
  %20 = icmp eq i8 %19, 63
  br i1 %15, label %21, label %.lr.ph._crit_edge.i

21:                                               ; preds = %.lr.ph.i
  br i1 %20, label %52, label %.thread

.lr.ph._crit_edge.i:                              ; preds = %.lr.ph.i
  br i1 %20, label %22, label %30

22:                                               ; preds = %.lr.ph._crit_edge.i
  %23 = zext i8 %14 to i64
  %24 = getelementptr inbounds [256 x i32], ptr @hex_chars, i64 0, i64 %23
  %25 = load i32, ptr %24, align 4
  %26 = icmp sgt i32 %25, -1
  br i1 %26, label %27, label %56

27:                                               ; preds = %22
  %.tr.i = trunc i32 %25 to i16
  %28 = shl i16 %.tr.i, 4
  %29 = or i16 %28, 768
  br label %52

30:                                               ; preds = %.lr.ph._crit_edge.i
  %cond = icmp eq i8 %14, 40
  br i1 %cond, label %52, label %38

.thread:                                          ; preds = %21
  %31 = zext i8 %19 to i64
  %32 = getelementptr inbounds [256 x i32], ptr @hex_chars, i64 0, i64 %31
  %33 = load i32, ptr %32, align 4
  %34 = icmp sgt i32 %33, -1
  br i1 %34, label %35, label %56

35:                                               ; preds = %.thread
  %36 = trunc i32 %33 to i16
  %37 = or i16 %36, 1024
  br label %52

38:                                               ; preds = %30
  %39 = zext i8 %14 to i64
  %40 = getelementptr inbounds [256 x i32], ptr @hex_chars, i64 0, i64 %39
  %41 = load i32, ptr %40, align 4
  %42 = icmp sgt i32 %41, -1
  br i1 %42, label %43, label %56

43:                                               ; preds = %38
  %44 = zext i8 %19 to i64
  %45 = getelementptr inbounds [256 x i32], ptr @hex_chars, i64 0, i64 %44
  %46 = load i32, ptr %45, align 4
  %47 = icmp sgt i32 %46, -1
  br i1 %47, label %48, label %56

48:                                               ; preds = %43
  %49 = shl i32 %41, 4
  %50 = add i32 %46, %49
  %51 = trunc i32 %50 to i16
  br label %52

52:                                               ; preds = %30, %48, %35, %27, %21
  %.032.i = phi i16 [ %29, %27 ], [ %37, %35 ], [ %51, %48 ], [ 256, %21 ], [ 512, %30 ]
  %53 = getelementptr inbounds i8, ptr %.03440.i, i64 2
  store i16 %.032.i, ptr %.03440.i, align 2
  %54 = add i32 %.041.i, 2
  %55 = icmp ult i32 %54, %3
  br i1 %55, label %.lr.ph.i, label %cli_realhex2ui.exit

56:                                               ; preds = %38, %43, %.thread, %22
  tail call void @free(ptr noundef %10) #27
  br label %cli_realhex2ui.exit

cli_realhex2ui.exit:                              ; preds = %52, %11, %6, %56, %5
  %.0 = phi ptr [ null, %5 ], [ null, %56 ], [ null, %6 ], [ %10, %11 ], [ %10, %52 ]
  ret ptr %.0
}